; ModuleID = '39/1868.c'
source_filename = "39/1868.c"
target datalayout = "e-m:e-p270:32:32-p271:32:32-p272:64:64-i64:64-f80:128-n8:16:32:64-S128"
target triple = "x86_64-pc-linux-gnu"

%struct.student = type { [20 x i8], i32, i32, i8, i8, i32, i32 }

@.str = private unnamed_addr constant [3 x i8] c"%d\00", align 1
@.str.1 = private unnamed_addr constant [18 x i8] c"%s %d %d %c %c %d\00", align 1
@.str.2 = private unnamed_addr constant [9 x i8] c"%s\0A%d\0A%d\00", align 1

; Function Attrs: noinline nounwind uwtable
define dso_local void @main() #0 {
  %1 = alloca i32, align 4
  %2 = alloca i32, align 4
  %3 = alloca i32, align 4
  %4 = alloca i32, align 4
  %5 = alloca i32, align 4
  %6 = alloca i32, align 4
  %7 = alloca [100 x %struct.student], align 16
  store i32 0, i32* %3, align 4
  store i32 0, i32* %5, align 4
  %8 = call i32 (i8*, ...) @__isoc99_scanf(i8* getelementptr inbounds ([3 x i8], [3 x i8]* @.str, i64 0, i64 0), i32* %4)
  store i32 0, i32* %1, align 4
  br label %9

9:                                                ; preds = %170, %0
  %10 = load i32, i32* %1, align 4
  %11 = load i32, i32* %4, align 4
  %12 = icmp slt i32 %10, %11
  br i1 %12, label %13, label %173

13:                                               ; preds = %9
  %14 = load i32, i32* %1, align 4
  %15 = sext i32 %14 to i64
  %16 = getelementptr inbounds [100 x %struct.student], [100 x %struct.student]* %7, i64 0, i64 %15
  %17 = getelementptr inbounds %struct.student, %struct.student* %16, i32 0, i32 6
  store i32 0, i32* %17, align 4
  %18 = load i32, i32* %1, align 4
  %19 = sext i32 %18 to i64
  %20 = getelementptr inbounds [100 x %struct.student], [100 x %struct.student]* %7, i64 0, i64 %19
  %21 = getelementptr inbounds %struct.student, %struct.student* %20, i32 0, i32 0
  %22 = load i32, i32* %1, align 4
  %23 = sext i32 %22 to i64
  %24 = getelementptr inbounds [100 x %struct.student], [100 x %struct.student]* %7, i64 0, i64 %23
  %25 = getelementptr inbounds %struct.student, %struct.student* %24, i32 0, i32 1
  %26 = load i32, i32* %1, align 4
  %27 = sext i32 %26 to i64
  %28 = getelementptr inbounds [100 x %struct.student], [100 x %struct.student]* %7, i64 0, i64 %27
  %29 = getelementptr inbounds %struct.student, %struct.student* %28, i32 0, i32 2
  %30 = load i32, i32* %1, align 4
  %31 = sext i32 %30 to i64
  %32 = getelementptr inbounds [100 x %struct.student], [100 x %struct.student]* %7, i64 0, i64 %31
  %33 = getelementptr inbounds %struct.student, %struct.student* %32, i32 0, i32 3
  %34 = load i32, i32* %1, align 4
  %35 = sext i32 %34 to i64
  %36 = getelementptr inbounds [100 x %struct.student], [100 x %struct.student]* %7, i64 0, i64 %35
  %37 = getelementptr inbounds %struct.student, %struct.student* %36, i32 0, i32 4
  %38 = load i32, i32* %1, align 4
  %39 = sext i32 %38 to i64
  %40 = getelementptr inbounds [100 x %struct.student], [100 x %struct.student]* %7, i64 0, i64 %39
  %41 = getelementptr inbounds %struct.student, %struct.student* %40, i32 0, i32 5
  %42 = call i32 (i8*, ...) @__isoc99_scanf(i8* getelementptr inbounds ([18 x i8], [18 x i8]* @.str.1, i64 0, i64 0), [20 x i8]* %21, i32* %25, i32* %29, i8* %33, i8* %37, i32* %41)
  %43 = load i32, i32* %1, align 4
  %44 = sext i32 %43 to i64
  %45 = getelementptr inbounds [100 x %struct.student], [100 x %struct.student]* %7, i64 0, i64 %44
  %46 = getelementptr inbounds %struct.student, %struct.student* %45, i32 0, i32 1
  %47 = load i32, i32* %46, align 4
  %48 = icmp sgt i32 %47, 80
  br i1 %48, label %49, label %67

49:                                               ; preds = %13
  %50 = load i32, i32* %1, align 4
  %51 = sext i32 %50 to i64
  %52 = getelementptr inbounds [100 x %struct.student], [100 x %struct.student]* %7, i64 0, i64 %51
  %53 = getelementptr inbounds %struct.student, %struct.student* %52, i32 0, i32 5
  %54 = load i32, i32* %53, align 8
  %55 = icmp sgt i32 %54, 0
  br i1 %55, label %56, label %67

56:                                               ; preds = %49
  %57 = load i32, i32* %1, align 4
  %58 = sext i32 %57 to i64
  %59 = getelementptr inbounds [100 x %struct.student], [100 x %struct.student]* %7, i64 0, i64 %58
  %60 = getelementptr inbounds %struct.student, %struct.student* %59, i32 0, i32 6
  %61 = load i32, i32* %60, align 4
  %62 = add nsw i32 %61, 8000
  %63 = load i32, i32* %1, align 4
  %64 = sext i32 %63 to i64
  %65 = getelementptr inbounds [100 x %struct.student], [100 x %struct.student]* %7, i64 0, i64 %64
  %66 = getelementptr inbounds %struct.student, %struct.student* %65, i32 0, i32 6
  store i32 %62, i32* %66, align 4
  br label %67

67:                                               ; preds = %56, %49, %13
  %68 = load i32, i32* %1, align 4
  %69 = sext i32 %68 to i64
  %70 = getelementptr inbounds [100 x %struct.student], [100 x %struct.student]* %7, i64 0, i64 %69
  %71 = getelementptr inbounds %struct.student, %struct.student* %70, i32 0, i32 1
  %72 = load i32, i32* %71, align 4
  %73 = icmp sgt i32 %72, 85
  br i1 %73, label %74, label %92

74:                                               ; preds = %67
  %75 = load i32, i32* %1, align 4
  %76 = sext i32 %75 to i64
  %77 = getelementptr inbounds [100 x %struct.student], [100 x %struct.student]* %7, i64 0, i64 %76
  %78 = getelementptr inbounds %struct.student, %struct.student* %77, i32 0, i32 2
  %79 = load i32, i32* %78, align 8
  %80 = icmp sgt i32 %79, 80
  br i1 %80, label %81, label %92

81:                                               ; preds = %74
  %82 = load i32, i32* %1, align 4
  %83 = sext i32 %82 to i64
  %84 = getelementptr inbounds [100 x %struct.student], [100 x %struct.student]* %7, i64 0, i64 %83
  %85 = getelementptr inbounds %struct.student, %struct.student* %84, i32 0, i32 6
  %86 = load i32, i32* %85, align 4
  %87 = add nsw i32 %86, 4000
  %88 = load i32, i32* %1, align 4
  %89 = sext i32 %88 to i64
  %90 = getelementptr inbounds [100 x %struct.student], [100 x %struct.student]* %7, i64 0, i64 %89
  %91 = getelementptr inbounds %struct.student, %struct.student* %90, i32 0, i32 6
  store i32 %87, i32* %91, align 4
  br label %92

92:                                               ; preds = %81, %74, %67
  %93 = load i32, i32* %1, align 4
  %94 = sext i32 %93 to i64
  %95 = getelementptr inbounds [100 x %struct.student], [100 x %struct.student]* %7, i64 0, i64 %94
  %96 = getelementptr inbounds %struct.student, %struct.student* %95, i32 0, i32 1
  %97 = load i32, i32* %96, align 4
  %98 = icmp sgt i32 %97, 90
  br i1 %98, label %99, label %110

99:                                               ; preds = %92
  %100 = load i32, i32* %1, align 4
  %101 = sext i32 %100 to i64
  %102 = getelementptr inbounds [100 x %struct.student], [100 x %struct.student]* %7, i64 0, i64 %101
  %103 = getelementptr inbounds %struct.student, %struct.student* %102, i32 0, i32 6
  %104 = load i32, i32* %103, align 4
  %105 = add nsw i32 %104, 2000
  %106 = load i32, i32* %1, align 4
  %107 = sext i32 %106 to i64
  %108 = getelementptr inbounds [100 x %struct.student], [100 x %struct.student]* %7, i64 0, i64 %107
  %109 = getelementptr inbounds %struct.student, %struct.student* %108, i32 0, i32 6
  store i32 %105, i32* %109, align 4
  br label %110

110:                                              ; preds = %99, %92
  %111 = load i32, i32* %1, align 4
  %112 = sext i32 %111 to i64
  %113 = getelementptr inbounds [100 x %struct.student], [100 x %struct.student]* %7, i64 0, i64 %112
  %114 = getelementptr inbounds %struct.student, %struct.student* %113, i32 0, i32 1
  %115 = load i32, i32* %114, align 4
  %116 = icmp sgt i32 %115, 85
  br i1 %116, label %117, label %136

117:                                              ; preds = %110
  %118 = load i32, i32* %1, align 4
  %119 = sext i32 %118 to i64
  %120 = getelementptr inbounds [100 x %struct.student], [100 x %struct.student]* %7, i64 0, i64 %119
  %121 = getelementptr inbounds %struct.student, %struct.student* %120, i32 0, i32 4
  %122 = load i8, i8* %121, align 1
  %123 = sext i8 %122 to i32
  %124 = icmp eq i32 %123, 89
  br i1 %124, label %125, label %136

125:                                              ; preds = %117
  %126 = load i32, i32* %1, align 4
  %127 = sext i32 %126 to i64
  %128 = getelementptr inbounds [100 x %struct.student], [100 x %struct.student]* %7, i64 0, i64 %127
  %129 = getelementptr inbounds %struct.student, %struct.student* %128, i32 0, i32 6
  %130 = load i32, i32* %129, align 4
  %131 = add nsw i32 %130, 1000
  %132 = load i32, i32* %1, align 4
  %133 = sext i32 %132 to i64
  %134 = getelementptr inbounds [100 x %struct.student], [100 x %struct.student]* %7, i64 0, i64 %133
  %135 = getelementptr inbounds %struct.student, %struct.student* %134, i32 0, i32 6
  store i32 %131, i32* %135, align 4
  br label %136

136:                                              ; preds = %125, %117, %110
  %137 = load i32, i32* %1, align 4
  %138 = sext i32 %137 to i64
  %139 = getelementptr inbounds [100 x %struct.student], [100 x %struct.student]* %7, i64 0, i64 %138
  %140 = getelementptr inbounds %struct.student, %struct.student* %139, i32 0, i32 2
  %141 = load i32, i32* %140, align 8
  %142 = icmp sgt i32 %141, 80
  br i1 %142, label %143, label %162

143:                                              ; preds = %136
  %144 = load i32, i32* %1, align 4
  %145 = sext i32 %144 to i64
  %146 = getelementptr inbounds [100 x %struct.student], [100 x %struct.student]* %7, i64 0, i64 %145
  %147 = getelementptr inbounds %struct.student, %struct.student* %146, i32 0, i32 3
  %148 = load i8, i8* %147, align 4
  %149 = sext i8 %148 to i32
  %150 = icmp eq i32 %149, 89
  br i1 %150, label %151, label %162

151:                                              ; preds = %143
  %152 = load i32, i32* %1, align 4
  %153 = sext i32 %152 to i64
  %154 = getelementptr inbounds [100 x %struct.student], [100 x %struct.student]* %7, i64 0, i64 %153
  %155 = getelementptr inbounds %struct.student, %struct.student* %154, i32 0, i32 6
  %156 = load i32, i32* %155, align 4
  %157 = add nsw i32 %156, 850
  %158 = load i32, i32* %1, align 4
  %159 = sext i32 %158 to i64
  %160 = getelementptr inbounds [100 x %struct.student], [100 x %struct.student]* %7, i64 0, i64 %159
  %161 = getelementptr inbounds %struct.student, %struct.student* %160, i32 0, i32 6
  store i32 %157, i32* %161, align 4
  br label %162

162:                                              ; preds = %151, %143, %136
  %163 = load i32, i32* %3, align 4
  %164 = load i32, i32* %1, align 4
  %165 = sext i32 %164 to i64
  %166 = getelementptr inbounds [100 x %struct.student], [100 x %struct.student]* %7, i64 0, i64 %165
  %167 = getelementptr inbounds %struct.student, %struct.student* %166, i32 0, i32 6
  %168 = load i32, i32* %167, align 4
  %169 = add nsw i32 %163, %168
  store i32 %169, i32* %3, align 4
  br label %170

170:                                              ; preds = %162
  %171 = load i32, i32* %1, align 4
  %172 = add nsw i32 %171, 1
  store i32 %172, i32* %1, align 4
  br label %9

173:                                              ; preds = %9
  store i32 0, i32* %1, align 4
  br label %174

174:                                              ; preds = %193, %173
  %175 = load i32, i32* %1, align 4
  %176 = load i32, i32* %4, align 4
  %177 = icmp slt i32 %175, %176
  br i1 %177, label %178, label %196

178:                                              ; preds = %174
  %179 = load i32, i32* %1, align 4
  %180 = sext i32 %179 to i64
  %181 = getelementptr inbounds [100 x %struct.student], [100 x %struct.student]* %7, i64 0, i64 %180
  %182 = getelementptr inbounds %struct.student, %struct.student* %181, i32 0, i32 6
  %183 = load i32, i32* %182, align 4
  %184 = load i32, i32* %5, align 4
  %185 = icmp sgt i32 %183, %184
  br i1 %185, label %186, label %192

186:                                              ; preds = %178
  %187 = load i32, i32* %1, align 4
  %188 = sext i32 %187 to i64
  %189 = getelementptr inbounds [100 x %struct.student], [100 x %struct.student]* %7, i64 0, i64 %188
  %190 = getelementptr inbounds %struct.student, %struct.student* %189, i32 0, i32 6
  %191 = load i32, i32* %190, align 4
  store i32 %191, i32* %5, align 4
  br label %192

192:                                              ; preds = %186, %178
  br label %193

193:                                              ; preds = %192
  %194 = load i32, i32* %1, align 4
  %195 = add nsw i32 %194, 1
  store i32 %195, i32* %1, align 4
  br label %174

196:                                              ; preds = %174
  store i32 0, i32* %1, align 4
  br label %197

197:                                              ; preds = %219, %196
  %198 = load i32, i32* %1, align 4
  %199 = load i32, i32* %4, align 4
  %200 = icmp slt i32 %198, %199
  br i1 %200, label %201, label %222

201:                                              ; preds = %197
  %202 = load i32, i32* %1, align 4
  %203 = sext i32 %202 to i64
  %204 = getelementptr inbounds [100 x %struct.student], [100 x %struct.student]* %7, i64 0, i64 %203
  %205 = getelementptr inbounds %struct.student, %struct.student* %204, i32 0, i32 6
  %206 = load i32, i32* %205, align 4
  %207 = load i32, i32* %5, align 4
  %208 = icmp eq i32 %206, %207
  br i1 %208, label %209, label %218

209:                                              ; preds = %201
  %210 = load i32, i32* %1, align 4
  %211 = sext i32 %210 to i64
  %212 = getelementptr inbounds [100 x %struct.student], [100 x %struct.student]* %7, i64 0, i64 %211
  %213 = getelementptr inbounds %struct.student, %struct.student* %212, i32 0, i32 0
  %214 = getelementptr inbounds [20 x i8], [20 x i8]* %213, i64 0, i64 0
  %215 = load i32, i32* %5, align 4
  %216 = load i32, i32* %3, align 4
  %217 = call i32 (i8*, ...) @printf(i8* getelementptr inbounds ([9 x i8], [9 x i8]* @.str.2, i64 0, i64 0), i8* %214, i32 %215, i32 %216)
  br label %222

218:                                              ; preds = %201
  br label %219

219:                                              ; preds = %218
  %220 = load i32, i32* %1, align 4
  %221 = add nsw i32 %220, 1
  store i32 %221, i32* %1, align 4
  br label %197

222:                                              ; preds = %209, %197
  ret void
}

declare dso_local i32 @__isoc99_scanf(i8*, ...) #1

declare dso_local i32 @printf(i8*, ...) #1


!llvm.module.flags = !{!0}
!llvm.ident = !{!1}

!0 = !{i32 1, !"wchar_size", i32 4}
!1 = !{!"clang version 10.0.0-4ubuntu1 "}
